target datalayout = "e-m:e-p270:32:32-p271:32:32-p272:64:64-i64:64-i128:128-f80:128-n8:16:32:64-S128"
target triple = "x86_64-pc-linux-gnu"

; Function Attrs: inlinehint nounwind uwtable
define internal i32 @Abc_Truth6WordNum(i32 noundef %0) #2 {
  %2 = alloca i32, align 4
  store i32 %0, ptr %2, align 4, !tbaa !8
  %3 = load i32, ptr %2, align 4, !tbaa !8
  %4 = icmp sle i32 %3, 6
  br i1 %4, label %5, label %6

5:                                                ; preds = %1
  br label %10

6:                                                ; preds = %1
  %7 = load i32, ptr %2, align 4, !tbaa !8
  %8 = sub nsw i32 %7, 6
  %9 = shl i32 1, %8
  br label %10

10:                                               ; preds = %6, %5
  %11 = phi i32 [ 1, %5 ], [ %9, %6 ]
  ret i32 %11
}

; Function Attrs: nounwind uwtable
define i32 @Abc_NodeConeIsConst1(ptr noundef %0, i32 noundef %1) #0 {
  %3 = alloca i32, align 4
  %4 = alloca ptr, align 8
  %5 = alloca i32, align 4
  %6 = alloca i32, align 4
  %7 = alloca i32, align 4
  %8 = alloca i32, align 4
  store ptr %0, ptr %4, align 8, !tbaa !12
  store i32 %1, ptr %5, align 4, !tbaa !8
  call void @llvm.lifetime.start.p0(i64 4, ptr %6) #11
  call void @llvm.lifetime.start.p0(i64 4, ptr %7) #11
  %9 = load i32, ptr %5, align 4, !tbaa !8
  %10 = call i32 @Abc_Truth6WordNum(i32 noundef %9)
  store i32 %10, ptr %7, align 4, !tbaa !8
  store i32 0, ptr %6, align 4, !tbaa !8
  br label %11

11:                                               ; preds = %25, %2
  %12 = load i32, ptr %6, align 4, !tbaa !8
  %13 = load i32, ptr %7, align 4, !tbaa !8
  %14 = icmp slt i32 %12, %13
  br i1 %14, label %15, label %28

15:                                               ; preds = %11
  %16 = load ptr, ptr %4, align 8, !tbaa !12
  %17 = load i32, ptr %6, align 4, !tbaa !8
  %18 = sext i32 %17 to i64
  %19 = getelementptr inbounds i64, ptr %16, i64 %18
  %20 = load i64, ptr %19, align 8, !tbaa !18
  %21 = xor i64 %20, -1
  %22 = icmp ne i64 %21, 0
  br i1 %22, label %23, label %24

23:                                               ; preds = %15
  store i32 0, ptr %3, align 4
  store i32 1, ptr %8, align 4
  br label %29

24:                                               ; preds = %15
  br label %25

25:                                               ; preds = %24
  %26 = load i32, ptr %6, align 4, !tbaa !8
  %27 = add nsw i32 %26, 1
  store i32 %27, ptr %6, align 4, !tbaa !8
  br label %11, !llvm.loop !50

28:                                               ; preds = %11
  store i32 1, ptr %3, align 4
  store i32 1, ptr %8, align 4
  br label %29

29:                                               ; preds = %28, %23
  call void @llvm.lifetime.end.p0(i64 4, ptr %7) #11
  call void @llvm.lifetime.end.p0(i64 4, ptr %6) #11
  %30 = load i32, ptr %3, align 4
  ret i32 %30
}